target datalayout = "e-m:e-p270:32:32-p271:32:32-p272:64:64-i64:64-i128:128-f80:128-n8:16:32:64-S128"
target triple = "x86_64-unknown-linux-gnu"

%struct.ESPState = type { %struct.DeviceState, [16 x i8], [16 x i8], ptr, ptr, i8, i8, i32, i32, i32, %struct.Fifo8, %struct.SCSIBus, ptr, ptr, %struct.Fifo8, i8, i8, i32, i8, i8, i32, i32, ptr, ptr, ptr, ptr, ptr, i8, i8, i32, i32, i8, i32, i32, [16 x i8], [32 x i8], i32 }
%struct.DeviceState = type { %struct.Object, ptr, ptr, i8, i8, i64, ptr, i32, i8, ptr, %struct.NamedGPIOListHead, %struct.NamedClockListHead, %struct.BusStateHead, i32, i32, i32, %struct.ResettableState, ptr, %struct.MemReentrancyGuard }
%struct.Object = type { ptr, ptr, ptr, i32, ptr }
%struct.NamedGPIOListHead = type { ptr }
%struct.NamedClockListHead = type { ptr }
%struct.BusStateHead = type { ptr }
%struct.ResettableState = type { i32, i8, i8 }
%struct.MemReentrancyGuard = type { i8 }
%struct.SCSIBus = type { %struct.BusState, i32, %struct.SCSISense, ptr, i32 }
%struct.BusState = type { %struct.Object, ptr, ptr, ptr, i32, i8, i8, i32, %union.BusChildHead, %struct.BusStateEntry, %struct.ResettableState }
%union.BusChildHead = type { %struct.QTailQLink }
%struct.QTailQLink = type { ptr, ptr }
%struct.BusStateEntry = type { ptr, ptr }
%struct.SCSISense = type { i8, i8, i8 }
%struct.Fifo8 = type { ptr, i32, i32, i32 }
%struct.SysBusESPState = type { %struct.SysBusDevice, %struct.MemoryRegion, %struct.MemoryRegion, i32, %struct.ESPState }
%struct.SysBusDevice = type { %struct.DeviceState, i32, [32 x %struct.anon.1], i32, [32 x i32] }
%struct.anon.1 = type { i64, ptr }
%struct.MemoryRegion = type { %struct.Object, i8, i8, i8, i8, i8, i8, i8, i8, i8, i8, ptr, ptr, ptr, ptr, ptr, ptr, i32, i128, i64, ptr, i64, i8, i8, i8, i8, i8, ptr, i64, i32, %union.anon.2, %union.anon.3, %union.anon.4, ptr, i32, ptr, ptr, i8 }
%union.anon.2 = type { %struct.QTailQLink }
%union.anon.3 = type { %struct.QTailQLink }
%union.anon.4 = type { %struct.QTailQLink }

@.str.3 = private unnamed_addr constant [4 x i8] c"esp\00", align 1
@.str.104 = private unnamed_addr constant [100 x i8] c"/home/dtcxzyw/WorkSpace/Projects/compilers/llvm-opt-benchmark/bench/qemu/qemu/include/hw/scsi/esp.h\00", align 1
@__func__.ESP = private unnamed_addr constant [4 x i8] c"ESP\00", align 1

; Function Attrs: nounwind sspstrong uwtable
define internal ptr @ESP(ptr noundef %obj) #0 {
entry:
  %obj.addr = alloca ptr, align 8
  store ptr %obj, ptr %obj.addr, align 8
  %0 = load ptr, ptr %obj.addr, align 8
  %call = call ptr @object_dynamic_cast_assert(ptr noundef %0, ptr noundef @.str.3, ptr noundef @.str.104, i32 noundef 20, ptr noundef @__func__.ESP)
  ret ptr %call
}

; Function Attrs: nounwind sspstrong uwtable
define internal void @sysbus_esp_mem_write(ptr noundef %opaque, i64 noundef %addr, i64 noundef %val, i32 noundef %size) #0 {
entry:
  %opaque.addr = alloca ptr, align 8
  %addr.addr = alloca i64, align 8
  %val.addr = alloca i64, align 8
  %size.addr = alloca i32, align 4
  %sysbus = alloca ptr, align 8
  %s = alloca ptr, align 8
  %saddr = alloca i32, align 4
  store ptr %opaque, ptr %opaque.addr, align 8
  store i64 %addr, ptr %addr.addr, align 8
  store i64 %val, ptr %val.addr, align 8
  store i32 %size, ptr %size.addr, align 4
  %0 = load ptr, ptr %opaque.addr, align 8
  store ptr %0, ptr %sysbus, align 8
  %1 = load ptr, ptr %sysbus, align 8
  %esp = getelementptr inbounds %struct.SysBusESPState, ptr %1, i32 0, i32 4
  %call = call ptr @ESP(ptr noundef %esp)
  store ptr %call, ptr %s, align 8
  %2 = load i64, ptr %addr.addr, align 8
  %3 = load ptr, ptr %sysbus, align 8
  %it_shift = getelementptr inbounds %struct.SysBusESPState, ptr %3, i32 0, i32 3
  %4 = load i32, ptr %it_shift, align 16
  %sh_prom = zext i32 %4 to i64
  %shr = lshr i64 %2, %sh_prom
  %conv = trunc i64 %shr to i32
  store i32 %conv, ptr %saddr, align 4
  %5 = load ptr, ptr %s, align 8
  %6 = load i32, ptr %saddr, align 4
  %7 = load i64, ptr %val.addr, align 8
  call void @esp_reg_write(ptr noundef %5, i32 noundef %6, i64 noundef %7)
  ret void
}